target datalayout = "e-m:e-p270:32:32-p271:32:32-p272:64:64-i64:64-i128:128-f80:128-n8:16:32:64-S128"
target triple = "x86_64-pc-linux-gnu"

@H5P_CLS_FILE_CREATE_ID_g = external global i64, align 8
@H5_libinit_g = external global i8, align 1
@H5_libterm_g = external global i8, align 1
@.str.1 = private unnamed_addr constant [101 x i8] c"generated/home/dtcxzyw/WorkSpace/Projects/compilers/llvm-opt-benchmark/bench/hdf5/hdf5/src/H5Pfcpl.c\00", align 1
@H5E_FUNC_g = external global i64, align 8
@H5E_CANTINIT_g = external global i64, align 8
@.str.2 = private unnamed_addr constant [30 x i8] c"library initialization failed\00", align 1
@H5E_CANTSET_g = external global i64, align 8
@.str.3 = private unnamed_addr constant [22 x i8] c"can't set API context\00", align 1
@H5E_ID_g = external global i64, align 8
@H5E_BADID_g = external global i64, align 8
@.str.6 = private unnamed_addr constant [25 x i8] c"can't find object for ID\00", align 1
@H5E_PLIST_g = external global i64, align 8
@H5E_CANTGET_g = external global i64, align 8
@.str.29 = private unnamed_addr constant [18 x i8] c"num_shmsg_indexes\00", align 1
@__func__.H5Pget_shared_mesg_nindexes = private unnamed_addr constant [28 x i8] c"H5Pget_shared_mesg_nindexes\00", align 1
@.str.31 = private unnamed_addr constant [28 x i8] c"can't get number of indexes\00", align 1

; Function Attrs: nounwind uwtable
define i32 @H5Pget_shared_mesg_nindexes(i64 noundef %0, ptr noundef %1) #0 {
  %3 = alloca i64, align 8
  %4 = alloca ptr, align 8
  %5 = alloca ptr, align 8
  %6 = alloca i32, align 4
  %7 = alloca i8, align 1
  %8 = alloca i8, align 1
  store i64 %0, ptr %3, align 8
  store ptr %1, ptr %4, align 8
  store i32 0, ptr %6, align 4
  store i8 0, ptr %7, align 1
  store i8 0, ptr %8, align 1
  %9 = load i8, ptr @H5_libinit_g, align 1
  %10 = trunc i8 %9 to i1
  br i1 %10, label %15, label %11

11:                                               ; preds = %2
  %12 = load i8, ptr @H5_libterm_g, align 1
  %13 = trunc i8 %12 to i1
  %14 = xor i1 %13, true
  br label %15

15:                                               ; preds = %11, %2
  %16 = phi i1 [ false, %2 ], [ %14, %11 ]
  %17 = xor i1 %16, true
  %18 = xor i1 %17, true
  %19 = zext i1 %18 to i32
  %20 = sext i32 %19 to i64
  %21 = icmp ne i64 %20, 0
  br i1 %21, label %22, label %46

22:                                               ; preds = %15
  %23 = call i32 @H5_init_library()
  %24 = icmp slt i32 %23, 0
  %25 = xor i1 %24, true
  %26 = xor i1 %25, true
  %27 = zext i1 %26 to i32
  %28 = sext i32 %27 to i64
  %29 = icmp ne i64 %28, 0
  br i1 %29, label %30, label %45

30:                                               ; preds = %22
  br label %31

31:                                               ; preds = %30
  br label %32

32:                                               ; preds = %31
  br label %33

33:                                               ; preds = %32
  %34 = load i64, ptr @H5E_FUNC_g, align 8
  %35 = load i64, ptr @H5E_CANTINIT_g, align 8
  %36 = call i32 (ptr, ptr, i32, i64, i64, ptr, ...) @H5E_printf_stack(ptr noundef @.str.1, ptr noundef @__func__.H5Pget_shared_mesg_nindexes, i32 noundef 783, i64 noundef %34, i64 noundef %35, ptr noundef @.str.2)
  br label %37

37:                                               ; preds = %33
  store i8 1, ptr %8, align 1
  %38 = load i8, ptr %8, align 1
  %39 = trunc i8 %38 to i1
  %40 = zext i1 %39 to i8
  store i8 %40, ptr %8, align 1
  br label %41

41:                                               ; preds = %37
  br label %42

42:                                               ; preds = %41
  store i32 -1, ptr %6, align 4
  br label %112

43:                                               ; No predecessors!
  br label %44

44:                                               ; preds = %43
  br label %45

45:                                               ; preds = %44, %22
  br label %46

46:                                               ; preds = %45, %15
  %47 = call i32 @H5CX_push()
  %48 = icmp slt i32 %47, 0
  %49 = xor i1 %48, true
  %50 = xor i1 %49, true
  %51 = zext i1 %50 to i32
  %52 = sext i32 %51 to i64
  %53 = icmp ne i64 %52, 0
  br i1 %53, label %54, label %69

54:                                               ; preds = %46
  br label %55

55:                                               ; preds = %54
  br label %56

56:                                               ; preds = %55
  br label %57

57:                                               ; preds = %56
  %58 = load i64, ptr @H5E_FUNC_g, align 8
  %59 = load i64, ptr @H5E_CANTSET_g, align 8
  %60 = call i32 (ptr, ptr, i32, i64, i64, ptr, ...) @H5E_printf_stack(ptr noundef @.str.1, ptr noundef @__func__.H5Pget_shared_mesg_nindexes, i32 noundef 783, i64 noundef %58, i64 noundef %59, ptr noundef @.str.3)
  br label %61

61:                                               ; preds = %57
  store i8 1, ptr %8, align 1
  %62 = load i8, ptr %8, align 1
  %63 = trunc i8 %62 to i1
  %64 = zext i1 %63 to i8
  store i8 %64, ptr %8, align 1
  br label %65

65:                                               ; preds = %61
  br label %66

66:                                               ; preds = %65
  store i32 -1, ptr %6, align 4
  br label %112

67:                                               ; No predecessors!
  br label %68

68:                                               ; preds = %67
  br label %70

69:                                               ; preds = %46
  store i8 1, ptr %7, align 1
  br label %70

70:                                               ; preds = %69, %68
  %71 = call i32 @H5E_clear_stack()
  %72 = load i64, ptr %3, align 8
  %73 = load i64, ptr @H5P_CLS_FILE_CREATE_ID_g, align 8
  %74 = call ptr @H5P_object_verify(i64 noundef %72, i64 noundef %73)
  store ptr %74, ptr %5, align 8
  %75 = icmp eq ptr null, %74
  br i1 %75, label %76, label %91

76:                                               ; preds = %70
  br label %77

77:                                               ; preds = %76
  br label %78

78:                                               ; preds = %77
  br label %79

79:                                               ; preds = %78
  %80 = load i64, ptr @H5E_ID_g, align 8
  %81 = load i64, ptr @H5E_BADID_g, align 8
  %82 = call i32 (ptr, ptr, i32, i64, i64, ptr, ...) @H5E_printf_stack(ptr noundef @.str.1, ptr noundef @__func__.H5Pget_shared_mesg_nindexes, i32 noundef 787, i64 noundef %80, i64 noundef %81, ptr noundef @.str.6)
  br label %83

83:                                               ; preds = %79
  store i8 1, ptr %8, align 1
  %84 = load i8, ptr %8, align 1
  %85 = trunc i8 %84 to i1
  %86 = zext i1 %85 to i8
  store i8 %86, ptr %8, align 1
  br label %87

87:                                               ; preds = %83
  br label %88

88:                                               ; preds = %87
  store i32 -1, ptr %6, align 4
  br label %112

89:                                               ; No predecessors!
  br label %90

90:                                               ; preds = %89
  br label %91

91:                                               ; preds = %90, %70
  %92 = load ptr, ptr %5, align 8
  %93 = load ptr, ptr %4, align 8
  %94 = call i32 @H5P_get(ptr noundef %92, ptr noundef @.str.29, ptr noundef %93)
  %95 = icmp slt i32 %94, 0
  br i1 %95, label %96, label %111

96:                                               ; preds = %91
  br label %97

97:                                               ; preds = %96
  br label %98

98:                                               ; preds = %97
  br label %99

99:                                               ; preds = %98
  %100 = load i64, ptr @H5E_PLIST_g, align 8
  %101 = load i64, ptr @H5E_CANTGET_g, align 8
  %102 = call i32 (ptr, ptr, i32, i64, i64, ptr, ...) @H5E_printf_stack(ptr noundef @.str.1, ptr noundef @__func__.H5Pget_shared_mesg_nindexes, i32 noundef 790, i64 noundef %100, i64 noundef %101, ptr noundef @.str.31)
  br label %103

103:                                              ; preds = %99
  store i8 1, ptr %8, align 1
  %104 = load i8, ptr %8, align 1
  %105 = trunc i8 %104 to i1
  %106 = zext i1 %105 to i8
  store i8 %106, ptr %8, align 1
  br label %107

107:                                              ; preds = %103
  br label %108

108:                                              ; preds = %107
  store i32 -1, ptr %6, align 4
  br label %112

109:                                              ; No predecessors!
  br label %110

110:                                              ; preds = %109
  br label %111

111:                                              ; preds = %110, %91
  br label %112

112:                                              ; preds = %111, %108, %88, %66, %42
  %113 = load i8, ptr %7, align 1
  %114 = trunc i8 %113 to i1
  %115 = xor i1 %114, true
  %116 = xor i1 %115, true
  %117 = zext i1 %116 to i32
  %118 = sext i32 %117 to i64
  %119 = icmp ne i64 %118, 0
  br i1 %119, label %120, label %122

120:                                              ; preds = %112
  %121 = call i32 @H5CX_pop(i1 noundef zeroext true)
  store i8 0, ptr %7, align 1
  br label %122

122:                                              ; preds = %120, %112
  %123 = load i8, ptr %8, align 1
  %124 = trunc i8 %123 to i1
  %125 = xor i1 %124, true
  %126 = xor i1 %125, true
  %127 = zext i1 %126 to i32
  %128 = sext i32 %127 to i64
  %129 = icmp ne i64 %128, 0
  br i1 %129, label %130, label %132

130:                                              ; preds = %122
  %131 = call i32 @H5E_dump_api_stack()
  br label %132

132:                                              ; preds = %130, %122
  %133 = load i32, ptr %6, align 4
  ret i32 %133
}