; Function Attrs: nounwind uwtable
define range(i32 -1, 1) i32 @H5Pget_shared_mesg_nindexes(i64 noundef %0, ptr noundef %1) local_unnamed_addr #0 {
  %3 = load i8, ptr @H5_libinit_g, align 1
  %4 = trunc i8 %3 to i1
  %5 = load i8, ptr @H5_libterm_g, align 1
  %6 = trunc i8 %5 to i1
  %7 = select i1 %4, i1 true, i1 %6
  br i1 %7, label %15, label %8

8:                                                ; preds = %2
  %9 = tail call i32 @H5_init_library() #6
  %10 = icmp slt i32 %9, 0
  br i1 %10, label %11, label %15

11:                                               ; preds = %8
  %12 = load i64, ptr @H5E_FUNC_g, align 8
  %13 = load i64, ptr @H5E_CANTINIT_g, align 8
  %14 = tail call i32 (ptr, ptr, i32, i64, i64, ptr, ...) @H5E_printf_stack(ptr noundef nonnull @.str.1, ptr noundef nonnull @__func__.H5Pget_shared_mesg_nindexes, i32 noundef 783, i64 noundef %12, i64 noundef %13, ptr noundef nonnull @.str.2) #6
  br label %.thread20

15:                                               ; preds = %8, %2
  %16 = tail call i32 @H5CX_push() #6
  %17 = icmp slt i32 %16, 0
  br i1 %17, label %18, label %22

18:                                               ; preds = %15
  %19 = load i64, ptr @H5E_FUNC_g, align 8
  %20 = load i64, ptr @H5E_CANTSET_g, align 8
  %21 = tail call i32 (ptr, ptr, i32, i64, i64, ptr, ...) @H5E_printf_stack(ptr noundef nonnull @.str.1, ptr noundef nonnull @__func__.H5Pget_shared_mesg_nindexes, i32 noundef 783, i64 noundef %19, i64 noundef %20, ptr noundef nonnull @.str.3) #6
  br label %.thread20

22:                                               ; preds = %15
  %23 = tail call i32 @H5E_clear_stack() #6
  %24 = load i64, ptr @H5P_CLS_FILE_CREATE_ID_g, align 8
  %25 = tail call ptr @H5P_object_verify(i64 noundef %0, i64 noundef %24) #6
  %26 = icmp eq ptr %25, null
  br i1 %26, label %27, label %31

27:                                               ; preds = %22
  %28 = load i64, ptr @H5E_ID_g, align 8
  %29 = load i64, ptr @H5E_BADID_g, align 8
  %30 = tail call i32 (ptr, ptr, i32, i64, i64, ptr, ...) @H5E_printf_stack(ptr noundef nonnull @.str.1, ptr noundef nonnull @__func__.H5Pget_shared_mesg_nindexes, i32 noundef 787, i64 noundef %28, i64 noundef %29, ptr noundef nonnull @.str.6) #6
  br label %.thread26

31:                                               ; preds = %22
  %32 = tail call i32 @H5P_get(ptr noundef nonnull %25, ptr noundef nonnull @.str.29, ptr noundef %1) #6
  %33 = icmp slt i32 %32, 0
  br i1 %33, label %34, label %39

34:                                               ; preds = %31
  %35 = load i64, ptr @H5E_PLIST_g, align 8
  %36 = load i64, ptr @H5E_CANTGET_g, align 8
  %37 = tail call i32 (ptr, ptr, i32, i64, i64, ptr, ...) @H5E_printf_stack(ptr noundef nonnull @.str.1, ptr noundef nonnull @__func__.H5Pget_shared_mesg_nindexes, i32 noundef 790, i64 noundef %35, i64 noundef %36, ptr noundef nonnull @.str.31) #6
  br label %.thread26

.thread26:                                        ; preds = %34, %27
  %38 = tail call i32 @H5CX_pop(i1 noundef zeroext true) #6
  br label %.thread20

39:                                               ; preds = %31
  %40 = tail call i32 @H5CX_pop(i1 noundef zeroext true) #6
  br label %42

.thread20:                                        ; preds = %18, %11, %.thread26
  %41 = tail call i32 @H5E_dump_api_stack() #6
  br label %42

42:                                               ; preds = %39, %.thread20
  %.0101523 = phi i32 [ -1, %.thread20 ], [ 0, %39 ]
  ret i32 %.0101523
}